target datalayout = "e-m:e-p270:32:32-p271:32:32-p272:64:64-i64:64-i128:128-f80:128-n8:16:32:64-S128"
target triple = "x86_64-pc-linux-gnu"

%"class.std::__cxx11::basic_string" = type { %"struct.std::__cxx11::basic_string<char>::_Alloc_hider", i64, %union.anon }
%"struct.std::__cxx11::basic_string<char>::_Alloc_hider" = type { ptr }
%union.anon = type { i64, [8 x i8] }
%"class.std::vector.91" = type { %"struct.std::_Vector_base.92" }
%"struct.std::_Vector_base.92" = type { %"struct.std::_Vector_base<std::__cxx11::basic_string<char>, std::allocator<std::__cxx11::basic_string<char>>>::_Vector_impl" }
%"struct.std::_Vector_base<std::__cxx11::basic_string<char>, std::allocator<std::__cxx11::basic_string<char>>>::_Vector_impl" = type { %"struct.std::_Vector_base<std::__cxx11::basic_string<char>, std::allocator<std::__cxx11::basic_string<char>>>::_Vector_impl_data" }
%"struct.std::_Vector_base<std::__cxx11::basic_string<char>, std::allocator<std::__cxx11::basic_string<char>>>::_Vector_impl_data" = type { ptr, ptr, ptr }
%"class.testing::internal::(anonymous namespace)::UnitTestFilter" = type { %"class.std::vector.91", %"class.std::unordered_set" }
%"class.std::unordered_set" = type { %"class.std::_Hashtable" }
%"class.std::_Hashtable" = type { ptr, i64, %"struct.std::__detail::_Hash_node_base", i64, %"struct.std::__detail::_Prime_rehash_policy", ptr }
%"struct.std::__detail::_Hash_node_base" = type { ptr }
%"struct.std::__detail::_Prime_rehash_policy" = type { float, i64 }
%"class.testing::internal::(anonymous namespace)::PositiveAndNegativeUnitTestFilter" = type { %"class.testing::internal::(anonymous namespace)::UnitTestFilter", %"class.testing::internal::(anonymous namespace)::UnitTestFilter" }

@_ZN7testing18FLAGS_gtest_filterB5cxx11E = global %"class.std::__cxx11::basic_string" zeroinitializer, align 8

; Function Attrs: inlinehint mustprogress nounwind uwtable
define internal void @_ZN7testing8internal12_GLOBAL__N_133PositiveAndNegativeUnitTestFilterD2Ev(ptr noundef nonnull align 8 dereferenceable(160) %0) unnamed_addr #8 align 2 {
  %2 = alloca ptr, align 8
  store ptr %0, ptr %2, align 8, !tbaa !470
  %3 = load ptr, ptr %2, align 8
  %4 = getelementptr inbounds nuw %"class.testing::internal::(anonymous namespace)::PositiveAndNegativeUnitTestFilter", ptr %3, i32 0, i32 1
  call void @_ZN7testing8internal12_GLOBAL__N_114UnitTestFilterD2Ev(ptr noundef nonnull align 8 dereferenceable(80) %4) #3
  %5 = getelementptr inbounds nuw %"class.testing::internal::(anonymous namespace)::PositiveAndNegativeUnitTestFilter", ptr %3, i32 0, i32 0
  call void @_ZN7testing8internal12_GLOBAL__N_114UnitTestFilterD2Ev(ptr noundef nonnull align 8 dereferenceable(80) %5) #3
  ret void
}

; Function Attrs: mustprogress uwtable
define noundef zeroext i1 @_ZN7testing8internal15UnitTestOptions17FilterMatchesTestERKNSt7__cxx1112basic_stringIcSt11char_traitsIcESaIcEEES9_(ptr noundef nonnull align 8 dereferenceable(32) %0, ptr noundef nonnull align 8 dereferenceable(32) %1) #4 align 2 personality ptr @__gxx_personality_v0 {
  %3 = alloca ptr, align 8
  %4 = alloca ptr, align 8
  %5 = alloca %"class.testing::internal::(anonymous namespace)::PositiveAndNegativeUnitTestFilter", align 8
  %6 = alloca ptr, align 8
  %7 = alloca i32, align 4
  store ptr %0, ptr %3, align 8, !tbaa !22
  store ptr %1, ptr %4, align 8, !tbaa !22
  call void @llvm.lifetime.start.p0(i64 160, ptr %5) #3
  call void @_ZN7testing8internal12_GLOBAL__N_133PositiveAndNegativeUnitTestFilterC2ERKNSt7__cxx1112basic_stringIcSt11char_traitsIcESaIcEEE(ptr noundef nonnull align 8 dereferenceable(160) %5, ptr noundef nonnull align 8 dereferenceable(32) @_ZN7testing18FLAGS_gtest_filterB5cxx11E)
  %8 = load ptr, ptr %3, align 8, !tbaa !22
  %9 = load ptr, ptr %4, align 8, !tbaa !22
  %10 = invoke noundef zeroext i1 @_ZNK7testing8internal12_GLOBAL__N_133PositiveAndNegativeUnitTestFilter11MatchesTestERKNSt7__cxx1112basic_stringIcSt11char_traitsIcESaIcEEESA_(ptr noundef nonnull align 8 dereferenceable(160) %5, ptr noundef nonnull align 8 dereferenceable(32) %8, ptr noundef nonnull align 8 dereferenceable(32) %9)
          to label %11 unwind label %12

11:                                               ; preds = %2
  call void @_ZN7testing8internal12_GLOBAL__N_133PositiveAndNegativeUnitTestFilterD2Ev(ptr noundef nonnull align 8 dereferenceable(160) %5) #3
  call void @llvm.lifetime.end.p0(i64 160, ptr %5) #3
  ret i1 %10

12:                                               ; preds = %2
  %13 = landingpad { ptr, i32 }
          cleanup
  %14 = extractvalue { ptr, i32 } %13, 0
  store ptr %14, ptr %6, align 8
  %15 = extractvalue { ptr, i32 } %13, 1
  store i32 %15, ptr %7, align 4
  call void @_ZN7testing8internal12_GLOBAL__N_133PositiveAndNegativeUnitTestFilterD2Ev(ptr noundef nonnull align 8 dereferenceable(160) %5) #3
  call void @llvm.lifetime.end.p0(i64 160, ptr %5) #3
  br label %16

16:                                               ; preds = %12
  %17 = load ptr, ptr %6, align 8
  %18 = load i32, ptr %7, align 4
  %19 = insertvalue { ptr, i32 } poison, ptr %17, 0
  %20 = insertvalue { ptr, i32 } %19, i32 %18, 1
  resume { ptr, i32 } %20
}